target datalayout = "e-m:e-p270:32:32-p271:32:32-p272:64:64-i64:64-i128:128-f80:128-n8:16:32:64-S128"
target triple = "x86_64-pc-linux-gnu"

%union.pthread_mutex_t = type { %struct.__pthread_mutex_s }
%struct.__pthread_mutex_s = type { i32, i32, i32, i32, i32, i16, i16, %struct.__pthread_internal_list }
%struct.__pthread_internal_list = type { ptr, ptr }

@mutex = global %union.pthread_mutex_t zeroinitializer, align 8
@stderr = external global ptr, align 8
@.str = private unnamed_addr constant [58 x i8] c"The following command has returned non-zero exit status:\0A\00", align 1
@.str.1 = private unnamed_addr constant [7 x i8] c"\22%s\22\0A\0A\00", align 1
@stdout = external global ptr, align 8
@nThreadsRunning = internal global i32 0, align 4

; Function Attrs: nounwind uwtable
define ptr @Abc_RunThread(ptr noundef %0) #0 {
  %2 = alloca ptr, align 8
  %3 = alloca i32, align 4
  store ptr %0, ptr %2, align 8, !tbaa !3
  call void @llvm.lifetime.start.p0(i64 4, ptr %3) #9
  %4 = load ptr, ptr %2, align 8, !tbaa !3
  %5 = call i32 @system(ptr noundef %4)
  %6 = icmp ne i32 %5, 0
  br i1 %6, label %7, label %15

7:                                                ; preds = %1
  %8 = load ptr, ptr @stderr, align 8, !tbaa !7
  %9 = call i32 (ptr, ptr, ...) @fprintf(ptr noundef %8, ptr noundef @.str) #9
  %10 = load ptr, ptr @stderr, align 8, !tbaa !7
  %11 = load ptr, ptr %2, align 8, !tbaa !3
  %12 = call i32 (ptr, ptr, ...) @fprintf(ptr noundef %10, ptr noundef @.str.1, ptr noundef %11) #9
  %13 = load ptr, ptr @stdout, align 8, !tbaa !7
  %14 = call i32 @fflush(ptr noundef %13)
  br label %15

15:                                               ; preds = %7, %1
  %16 = load ptr, ptr %2, align 8, !tbaa !3
  call void @free(ptr noundef %16) #9
  %17 = call i32 @pthread_mutex_lock(ptr noundef @mutex) #9
  store i32 %17, ptr %3, align 4, !tbaa !9
  %18 = load volatile i32, ptr @nThreadsRunning, align 4, !tbaa !9
  %19 = add nsw i32 %18, -1
  store volatile i32 %19, ptr @nThreadsRunning, align 4, !tbaa !9
  %20 = call i32 @pthread_mutex_unlock(ptr noundef @mutex) #9
  store i32 %20, ptr %3, align 4, !tbaa !9
  call void @pthread_exit(ptr noundef null) #10
  unreachable
}