; Function Attrs: noreturn nounwind uwtable
define noalias noundef nonnull ptr @Abc_RunThread(ptr noundef %0) #0 {
  %2 = tail call i32 @system(ptr noundef %0) #16
  %.not = icmp eq i32 %2, 0
  br i1 %.not, label %10, label %3

3:                                                ; preds = %1
  %4 = load ptr, ptr @stderr, align 8, !tbaa !3
  %5 = tail call i64 @fwrite(ptr nonnull @.str, i64 57, i64 1, ptr %4) #17
  %6 = load ptr, ptr @stderr, align 8, !tbaa !3
  %7 = tail call i32 (ptr, ptr, ...) @fprintf(ptr noundef %6, ptr noundef nonnull @.str.1, ptr noundef %0) #18
  %8 = load ptr, ptr @stdout, align 8, !tbaa !3
  %9 = tail call i32 @fflush(ptr noundef %8)
  br label %10

10:                                               ; preds = %3, %1
  tail call void @free(ptr noundef %0) #16
  %11 = tail call i32 @pthread_mutex_lock(ptr noundef nonnull @mutex) #16
  %12 = load volatile i32, ptr @nThreadsRunning, align 4, !tbaa !8
  %13 = add nsw i32 %12, -1
  store volatile i32 %13, ptr @nThreadsRunning, align 4, !tbaa !8
  %14 = tail call i32 @pthread_mutex_unlock(ptr noundef nonnull @mutex) #16
  tail call void @pthread_exit(ptr noundef null) #19
  unreachable
}